; Function Attrs: mustprogress nounwind uwtable
define dso_local void @_ZN11cmMessenger12SetTopSourceESt8optionalINSt7__cxx1112basic_stringIcSt11char_traitsIcESaIcEEEE(ptr noundef nonnull align 8 dereferenceable(64) %0, ptr noundef %1) local_unnamed_addr #5 align 2 personality ptr @__gxx_personality_v0 {
  %3 = getelementptr inbounds nuw i8, ptr %0, i64 32
  %4 = load i8, ptr %3, align 8
  %5 = trunc i8 %4 to i1
  %6 = getelementptr inbounds nuw i8, ptr %1, i64 32
  %7 = load i8, ptr %6, align 8
  %8 = trunc i8 %7 to i1
  br i1 %5, label %9, label %.thread.i.i.i.i.i

9:                                                ; preds = %2
  br i1 %8, label %10, label %13

10:                                               ; preds = %9
  %11 = tail call noundef nonnull align 8 dereferenceable(32) ptr @_ZNSt7__cxx1112basic_stringIcSt11char_traitsIcESaIcEEaSEOS4_(ptr noundef nonnull align 8 dereferenceable(40) %0, ptr noundef nonnull align 8 dereferenceable(40) %1) #11
  br label %_ZNSt8optionalINSt7__cxx1112basic_stringIcSt11char_traitsIcESaIcEEEEaSEOS6_.exit

.thread.i.i.i.i.i:                                ; preds = %2
  br i1 %8, label %12, label %_ZNSt8optionalINSt7__cxx1112basic_stringIcSt11char_traitsIcESaIcEEEEaSEOS6_.exit

12:                                               ; preds = %.thread.i.i.i.i.i
  tail call void @_ZNSt7__cxx1112basic_stringIcSt11char_traitsIcESaIcEEC1EOS4_(ptr noundef nonnull align 8 dereferenceable(40) %0, ptr noundef nonnull align 8 dereferenceable(40) %1) #11
  store i8 1, ptr %3, align 8
  br label %_ZNSt8optionalINSt7__cxx1112basic_stringIcSt11char_traitsIcESaIcEEEEaSEOS6_.exit

13:                                               ; preds = %9
  store i8 0, ptr %3, align 8
  tail call void @_ZNSt7__cxx1112basic_stringIcSt11char_traitsIcESaIcEED1Ev(ptr noundef nonnull align 8 dereferenceable(40) %0) #11
  br label %_ZNSt8optionalINSt7__cxx1112basic_stringIcSt11char_traitsIcESaIcEEEEaSEOS6_.exit

_ZNSt8optionalINSt7__cxx1112basic_stringIcSt11char_traitsIcESaIcEEEEaSEOS6_.exit: ; preds = %10, %.thread.i.i.i.i.i, %12, %13
  ret void
}